target datalayout = "e-m:e-p270:32:32-p271:32:32-p272:64:64-i64:64-i128:128-f80:128-n8:16:32:64-S128"
target triple = "x86_64-pc-linux-gnu"

; Function Attrs: nounwind uwtable
define dso_local i32 @_PyToken_TwoChars(i32 noundef %0, i32 noundef %1) #0 {
  %3 = alloca i32, align 4
  %4 = alloca i32, align 4
  %5 = alloca i32, align 4
  store i32 %0, ptr %4, align 4, !tbaa !4
  store i32 %1, ptr %5, align 4, !tbaa !4
  %6 = load i32, ptr %4, align 4, !tbaa !4
  switch i32 %6, label %69 [
    i32 33, label %7
    i32 37, label %11
    i32 38, label %15
    i32 42, label %19
    i32 43, label %24
    i32 45, label %28
    i32 47, label %33
    i32 58, label %38
    i32 60, label %42
    i32 61, label %48
    i32 62, label %52
    i32 64, label %57
    i32 94, label %61
    i32 124, label %65
  ]

7:                                                ; preds = %2
  %8 = load i32, ptr %5, align 4, !tbaa !4
  switch i32 %8, label %10 [
    i32 61, label %9
  ]

9:                                                ; preds = %7
  store i32 28, ptr %3, align 4
  br label %70

10:                                               ; preds = %7
  br label %69

11:                                               ; preds = %2
  %12 = load i32, ptr %5, align 4, !tbaa !4
  switch i32 %12, label %14 [
    i32 61, label %13
  ]

13:                                               ; preds = %11
  store i32 40, ptr %3, align 4
  br label %70

14:                                               ; preds = %11
  br label %69

15:                                               ; preds = %2
  %16 = load i32, ptr %5, align 4, !tbaa !4
  switch i32 %16, label %18 [
    i32 61, label %17
  ]

17:                                               ; preds = %15
  store i32 41, ptr %3, align 4
  br label %70

18:                                               ; preds = %15
  br label %69

19:                                               ; preds = %2
  %20 = load i32, ptr %5, align 4, !tbaa !4
  switch i32 %20, label %23 [
    i32 42, label %21
    i32 61, label %22
  ]

21:                                               ; preds = %19
  store i32 35, ptr %3, align 4
  br label %70

22:                                               ; preds = %19
  store i32 38, ptr %3, align 4
  br label %70

23:                                               ; preds = %19
  br label %69

24:                                               ; preds = %2
  %25 = load i32, ptr %5, align 4, !tbaa !4
  switch i32 %25, label %27 [
    i32 61, label %26
  ]

26:                                               ; preds = %24
  store i32 36, ptr %3, align 4
  br label %70

27:                                               ; preds = %24
  br label %69

28:                                               ; preds = %2
  %29 = load i32, ptr %5, align 4, !tbaa !4
  switch i32 %29, label %32 [
    i32 61, label %30
    i32 62, label %31
  ]

30:                                               ; preds = %28
  store i32 37, ptr %3, align 4
  br label %70

31:                                               ; preds = %28
  store i32 51, ptr %3, align 4
  br label %70

32:                                               ; preds = %28
  br label %69

33:                                               ; preds = %2
  %34 = load i32, ptr %5, align 4, !tbaa !4
  switch i32 %34, label %37 [
    i32 47, label %35
    i32 61, label %36
  ]

35:                                               ; preds = %33
  store i32 47, ptr %3, align 4
  br label %70

36:                                               ; preds = %33
  store i32 39, ptr %3, align 4
  br label %70

37:                                               ; preds = %33
  br label %69

38:                                               ; preds = %2
  %39 = load i32, ptr %5, align 4, !tbaa !4
  switch i32 %39, label %41 [
    i32 61, label %40
  ]

40:                                               ; preds = %38
  store i32 53, ptr %3, align 4
  br label %70

41:                                               ; preds = %38
  br label %69

42:                                               ; preds = %2
  %43 = load i32, ptr %5, align 4, !tbaa !4
  switch i32 %43, label %47 [
    i32 60, label %44
    i32 61, label %45
    i32 62, label %46
  ]

44:                                               ; preds = %42
  store i32 33, ptr %3, align 4
  br label %70

45:                                               ; preds = %42
  store i32 29, ptr %3, align 4
  br label %70

46:                                               ; preds = %42
  store i32 28, ptr %3, align 4
  br label %70

47:                                               ; preds = %42
  br label %69

48:                                               ; preds = %2
  %49 = load i32, ptr %5, align 4, !tbaa !4
  switch i32 %49, label %51 [
    i32 61, label %50
  ]

50:                                               ; preds = %48
  store i32 27, ptr %3, align 4
  br label %70

51:                                               ; preds = %48
  br label %69

52:                                               ; preds = %2
  %53 = load i32, ptr %5, align 4, !tbaa !4
  switch i32 %53, label %56 [
    i32 61, label %54
    i32 62, label %55
  ]

54:                                               ; preds = %52
  store i32 30, ptr %3, align 4
  br label %70

55:                                               ; preds = %52
  store i32 34, ptr %3, align 4
  br label %70

56:                                               ; preds = %52
  br label %69

57:                                               ; preds = %2
  %58 = load i32, ptr %5, align 4, !tbaa !4
  switch i32 %58, label %60 [
    i32 61, label %59
  ]

59:                                               ; preds = %57
  store i32 50, ptr %3, align 4
  br label %70

60:                                               ; preds = %57
  br label %69

61:                                               ; preds = %2
  %62 = load i32, ptr %5, align 4, !tbaa !4
  switch i32 %62, label %64 [
    i32 61, label %63
  ]

63:                                               ; preds = %61
  store i32 43, ptr %3, align 4
  br label %70

64:                                               ; preds = %61
  br label %69

65:                                               ; preds = %2
  %66 = load i32, ptr %5, align 4, !tbaa !4
  switch i32 %66, label %68 [
    i32 61, label %67
  ]

67:                                               ; preds = %65
  store i32 42, ptr %3, align 4
  br label %70

68:                                               ; preds = %65
  br label %69

69:                                               ; preds = %2, %68, %64, %60, %56, %51, %47, %41, %37, %32, %27, %23, %18, %14, %10
  store i32 55, ptr %3, align 4
  br label %70

70:                                               ; preds = %69, %67, %63, %59, %55, %54, %50, %46, %45, %44, %40, %36, %35, %31, %30, %26, %22, %21, %17, %13, %9
  %71 = load i32, ptr %3, align 4
  ret i32 %71
}