; Function Attrs: mustprogress nofree norecurse nosync nounwind willreturn memory(none) uwtable
define dso_local range(i32 27, 56) i32 @_PyToken_TwoChars(i32 noundef %0, i32 noundef %1) local_unnamed_addr #0 {
  switch i32 %0, label %18 [
    i32 33, label %3
    i32 37, label %4
    i32 38, label %5
    i32 42, label %6
    i32 43, label %7
    i32 45, label %8
    i32 47, label %9
    i32 58, label %10
    i32 60, label %11
    i32 61, label %13
    i32 62, label %14
    i32 64, label %15
    i32 94, label %16
    i32 124, label %17
  ]

3:                                                ; preds = %2
  %cond8 = icmp eq i32 %1, 61
  br i1 %cond8, label %20, label %18

4:                                                ; preds = %2
  %cond7 = icmp eq i32 %1, 61
  br i1 %cond7, label %20, label %18

5:                                                ; preds = %2
  %cond6 = icmp eq i32 %1, 61
  br i1 %cond6, label %20, label %18

6:                                                ; preds = %2
  %switch.selectcmp = icmp eq i32 %1, 61
  %switch.select = select i1 %switch.selectcmp, i32 38, i32 55
  %switch.selectcmp24 = icmp eq i32 %1, 42
  %switch.select25 = select i1 %switch.selectcmp24, i32 35, i32 %switch.select
  br label %20

7:                                                ; preds = %2
  %cond5 = icmp eq i32 %1, 61
  br i1 %cond5, label %20, label %18

8:                                                ; preds = %2
  %switch.selectcmp26 = icmp eq i32 %1, 62
  %switch.select27 = select i1 %switch.selectcmp26, i32 51, i32 55
  %switch.selectcmp28 = icmp eq i32 %1, 61
  %switch.select29 = select i1 %switch.selectcmp28, i32 37, i32 %switch.select27
  br label %20

9:                                                ; preds = %2
  %switch.selectcmp30 = icmp eq i32 %1, 61
  %switch.select31 = select i1 %switch.selectcmp30, i32 39, i32 55
  %switch.selectcmp32 = icmp eq i32 %1, 47
  %switch.select33 = select i1 %switch.selectcmp32, i32 47, i32 %switch.select31
  br label %20

10:                                               ; preds = %2
  %cond4 = icmp eq i32 %1, 61
  br i1 %cond4, label %20, label %18

11:                                               ; preds = %2
  %switch.tableidx = add i32 %1, -60
  %12 = icmp ult i32 %switch.tableidx, 3
  br i1 %12, label %switch.lookup, label %18

13:                                               ; preds = %2
  %cond3 = icmp eq i32 %1, 61
  br i1 %cond3, label %20, label %18

14:                                               ; preds = %2
  %switch.selectcmp34 = icmp eq i32 %1, 62
  %switch.select35 = select i1 %switch.selectcmp34, i32 34, i32 55
  %switch.selectcmp36 = icmp eq i32 %1, 61
  %switch.select37 = select i1 %switch.selectcmp36, i32 30, i32 %switch.select35
  br label %20

15:                                               ; preds = %2
  %cond2 = icmp eq i32 %1, 61
  br i1 %cond2, label %20, label %18

16:                                               ; preds = %2
  %cond1 = icmp eq i32 %1, 61
  br i1 %cond1, label %20, label %18

17:                                               ; preds = %2
  %cond = icmp eq i32 %1, 61
  br i1 %cond, label %20, label %18

18:                                               ; preds = %11, %17, %16, %15, %13, %10, %7, %5, %4, %3, %2
  br label %20

switch.lookup:                                    ; preds = %11
  %19 = zext nneg i32 %switch.tableidx to i64
  %switch.gep = getelementptr inbounds nuw [3 x i32], ptr @switch.table._PyToken_TwoChars, i64 0, i64 %19
  %switch.load = load i32, ptr %switch.gep, align 4
  br label %20

20:                                               ; preds = %switch.lookup, %17, %16, %15, %14, %13, %10, %9, %8, %7, %6, %5, %4, %3, %18
  %.0 = phi i32 [ 55, %18 ], [ 28, %3 ], [ 40, %4 ], [ 41, %5 ], [ %switch.select25, %6 ], [ 36, %7 ], [ %switch.select29, %8 ], [ %switch.select33, %9 ], [ 53, %10 ], [ 27, %13 ], [ %switch.select37, %14 ], [ 50, %15 ], [ 43, %16 ], [ 42, %17 ], [ %switch.load, %switch.lookup ]
  ret i32 %.0
}